; Function Attrs: mustprogress uwtable
define internal void @_ZNK6google8protobuf12_GLOBAL__N_124FieldValuePrinterWrapper11PrintDoubleEdPNS0_10TextFormat17BaseTextGeneratorE(ptr nocapture noundef nonnull readonly align 8 dereferenceable(16) %this, double noundef %val, ptr noundef %generator) unnamed_addr #4 align 2 personality ptr @__gxx_personality_v0 {
entry:
  %ref.tmp = alloca %"class.std::__cxx11::basic_string", align 8
  %delegate_ = getelementptr inbounds i8, ptr %this, i64 8
  %0 = load ptr, ptr %delegate_, align 8
  %vtable = load ptr, ptr %0, align 8
  %vfn = getelementptr inbounds i8, ptr %vtable, i64 64
  %1 = load ptr, ptr %vfn, align 8
  call void %1(ptr nonnull sret(%"class.std::__cxx11::basic_string") align 8 %ref.tmp, ptr noundef nonnull align 8 dereferenceable(16) %0, double noundef %val)
  %call2 = call { i64, ptr } @_ZNKSt7__cxx1112basic_stringIcSt11char_traitsIcESaIcEEcvSt17basic_string_viewIcS2_EEv(ptr noundef nonnull align 8 dereferenceable(32) %ref.tmp) #34
  %2 = extractvalue { i64, ptr } %call2, 0
  %3 = extractvalue { i64, ptr } %call2, 1
  %vtable.i = load ptr, ptr %generator, align 8
  %vfn.i = getelementptr inbounds i8, ptr %vtable.i, i64 40
  %4 = load ptr, ptr %vfn.i, align 8
  invoke void %4(ptr noundef nonnull align 8 dereferenceable(8) %generator, ptr noundef %3, i64 noundef %2)
          to label %invoke.cont unwind label %lpad

invoke.cont:                                      ; preds = %entry
  call void @_ZNSt7__cxx1112basic_stringIcSt11char_traitsIcESaIcEED1Ev(ptr noundef nonnull align 8 dereferenceable(32) %ref.tmp) #34
  ret void

lpad:                                             ; preds = %entry
  %5 = landingpad { ptr, i32 }
          cleanup
  call void @_ZNSt7__cxx1112basic_stringIcSt11char_traitsIcESaIcEED1Ev(ptr noundef nonnull align 8 dereferenceable(32) %ref.tmp) #34
  resume { ptr, i32 } %5
}